target datalayout = "e-m:e-p270:32:32-p271:32:32-p272:64:64-i64:64-i128:128-f80:128-n8:16:32:64-S128"
target triple = "x86_64-pc-linux-gnu"

%struct._diam_sub_dis_t = type { i32, i32, i32, i32, i32, ptr, ptr, i32, i32, i32 }
%struct._packet_info = type { ptr, ptr, i32, i32, %struct.nstime_t, %struct.nstime_t, %struct.nstime_t, i32, ptr, ptr, ptr, ptr, %struct._address, %struct._address, %struct._address, %struct._address, %struct._address, %struct._address, i32, ptr, i32, %struct.anon, i32, i32, i32, i32, ptr, i32, ptr, ptr, i16, i16, i32, i32, i16, i32, i32, ptr, ptr, ptr, i8, i8, i16, i16, i16, i32, i16, i16, ptr, ptr, ptr, ptr, ptr, i32 }
%struct.nstime_t = type { i64, i32 }
%struct._address = type { i32, i32, ptr, ptr }
%struct.anon = type { i8, [3 x i8] }

@hf_diameter_3gpp_timezone = internal global i32 0, align 4
@hf_diameter_3gpp_timezone_adjustment = internal global i32 0, align 4
@.str.946 = private unnamed_addr constant [27 x i8] c"GMT %c %d hours %d minutes\00", align 1
@.str.947 = private unnamed_addr constant [40 x i8] c"Timezone: GMT %c %d hours %d minutes %s\00", align 1
@.str.948 = private unnamed_addr constant [8 x i8] c"Unknown\00", align 1

; Function Attrs: nounwind uwtable
define internal i32 @dissect_diameter_3gpp_ms_timezone(ptr noundef %0, ptr noundef %1, ptr noundef %2, ptr noundef %3) #0 {
  %5 = alloca ptr, align 8
  %6 = alloca ptr, align 8
  %7 = alloca ptr, align 8
  %8 = alloca ptr, align 8
  %9 = alloca i32, align 4
  %10 = alloca i8, align 1
  %11 = alloca i8, align 1
  %12 = alloca i8, align 1
  %13 = alloca i8, align 1
  %14 = alloca ptr, align 8
  store ptr %0, ptr %5, align 8
  store ptr %1, ptr %6, align 8
  store ptr %2, ptr %7, align 8
  store ptr %3, ptr %8, align 8
  store i32 0, ptr %9, align 4
  %15 = load ptr, ptr %8, align 8
  store ptr %15, ptr %14, align 8
  %16 = load ptr, ptr %5, align 8
  %17 = load i32, ptr %9, align 4
  %18 = call zeroext i8 @tvb_get_guint8(ptr noundef %16, i32 noundef %17)
  store i8 %18, ptr %10, align 1
  %19 = load i8, ptr %10, align 1
  %20 = zext i8 %19 to i32
  %21 = and i32 %20, 8
  %22 = icmp ne i32 %21, 0
  %23 = select i1 %22, i32 45, i32 43
  %24 = trunc i32 %23 to i8
  store i8 %24, ptr %13, align 1
  %25 = load i8, ptr %10, align 1
  %26 = zext i8 %25 to i32
  %27 = ashr i32 %26, 4
  %28 = load i8, ptr %10, align 1
  %29 = zext i8 %28 to i32
  %30 = and i32 %29, 7
  %31 = mul i32 %30, 10
  %32 = add i32 %27, %31
  %33 = trunc i32 %32 to i8
  store i8 %33, ptr %10, align 1
  %34 = load i8, ptr %10, align 1
  %35 = zext i8 %34 to i32
  %36 = sdiv i32 %35, 4
  %37 = trunc i32 %36 to i8
  store i8 %37, ptr %11, align 1
  %38 = load i8, ptr %10, align 1
  %39 = zext i8 %38 to i32
  %40 = srem i32 %39, 4
  %41 = mul i32 %40, 15
  %42 = trunc i32 %41 to i8
  store i8 %42, ptr %12, align 1
  %43 = load ptr, ptr %7, align 8
  %44 = load i32, ptr @hf_diameter_3gpp_timezone, align 4
  %45 = load ptr, ptr %5, align 8
  %46 = load i32, ptr %9, align 4
  %47 = load i8, ptr %10, align 1
  %48 = zext i8 %47 to i32
  %49 = load i8, ptr %13, align 1
  %50 = sext i8 %49 to i32
  %51 = load i8, ptr %11, align 1
  %52 = zext i8 %51 to i32
  %53 = load i8, ptr %12, align 1
  %54 = zext i8 %53 to i32
  %55 = call ptr (ptr, i32, ptr, i32, i32, i32, ptr, ...) @proto_tree_add_uint_format_value(ptr noundef %43, i32 noundef %44, ptr noundef %45, i32 noundef %46, i32 noundef 1, i32 noundef %48, ptr noundef @.str.946, i32 noundef %50, i32 noundef %52, i32 noundef %54)
  %56 = load i32, ptr %9, align 4
  %57 = add i32 %56, 1
  store i32 %57, ptr %9, align 4
  %58 = load ptr, ptr %5, align 8
  %59 = load i32, ptr %9, align 4
  %60 = call zeroext i8 @tvb_get_guint8(ptr noundef %58, i32 noundef %59)
  %61 = zext i8 %60 to i32
  %62 = and i32 %61, 3
  %63 = trunc i32 %62 to i8
  store i8 %63, ptr %10, align 1
  %64 = load ptr, ptr %7, align 8
  %65 = load i32, ptr @hf_diameter_3gpp_timezone_adjustment, align 4
  %66 = load ptr, ptr %5, align 8
  %67 = load i32, ptr %9, align 4
  %68 = call ptr @proto_tree_add_item(ptr noundef %64, i32 noundef %65, ptr noundef %66, i32 noundef %67, i32 noundef 1, i32 noundef 0)
  %69 = load i32, ptr %9, align 4
  %70 = add i32 %69, 1
  store i32 %70, ptr %9, align 4
  %71 = load ptr, ptr %6, align 8
  %72 = getelementptr inbounds %struct._packet_info, ptr %71, i32 0, i32 50
  %73 = load ptr, ptr %72, align 8
  %74 = load i8, ptr %13, align 1
  %75 = sext i8 %74 to i32
  %76 = load i8, ptr %11, align 1
  %77 = zext i8 %76 to i32
  %78 = load i8, ptr %12, align 1
  %79 = zext i8 %78 to i32
  %80 = load i8, ptr %10, align 1
  %81 = zext i8 %80 to i32
  %82 = call ptr @val_to_str_const(i32 noundef %81, ptr noundef @daylight_saving_time_vals, ptr noundef @.str.948)
  %83 = call noalias ptr (ptr, ptr, ...) @wmem_strdup_printf(ptr noundef %73, ptr noundef @.str.947, i32 noundef %75, i32 noundef %77, i32 noundef %79, ptr noundef %82)
  %84 = load ptr, ptr %14, align 8
  %85 = getelementptr inbounds %struct._diam_sub_dis_t, ptr %84, i32 0, i32 5
  store ptr %83, ptr %85, align 8
  %86 = load i32, ptr %9, align 4
  ret i32 %86
}