; Function Attrs: nounwind uwtable
define internal noundef i32 @dissect_diameter_3gpp_ms_timezone(ptr noundef %0, ptr noundef readonly captures(none) %1, ptr noundef %2, ptr noundef writeonly captures(none) initializes((24, 32)) %3) #0 {
  %5 = tail call zeroext i8 @tvb_get_guint8(ptr noundef %0, i32 noundef 0) #3
  %6 = and i8 %5, 8
  %.not = icmp eq i8 %6, 0
  %7 = select i1 %.not, i32 43, i32 45
  %8 = lshr i8 %5, 4
  %9 = and i8 %5, 7
  %10 = mul nuw nsw i8 %9, 10
  %11 = add nuw nsw i8 %10, %8
  %12 = zext nneg i8 %11 to i32
  %13 = lshr i8 %11, 2
  %14 = and i8 %11, 3
  %15 = mul nuw nsw i8 %14, 15
  %16 = load i32, ptr @hf_diameter_3gpp_timezone, align 4
  %17 = zext nneg i8 %13 to i32
  %18 = zext nneg i8 %15 to i32
  %19 = tail call ptr (ptr, i32, ptr, i32, i32, i32, ptr, ...) @proto_tree_add_uint_format_value(ptr noundef %2, i32 noundef %16, ptr noundef %0, i32 noundef 0, i32 noundef 1, i32 noundef %12, ptr noundef nonnull @.str.946, i32 noundef %7, i32 noundef %17, i32 noundef %18) #3
  %20 = tail call zeroext i8 @tvb_get_guint8(ptr noundef %0, i32 noundef 1) #3
  %21 = and i8 %20, 3
  %22 = load i32, ptr @hf_diameter_3gpp_timezone_adjustment, align 4
  %23 = tail call ptr @proto_tree_add_item(ptr noundef %2, i32 noundef %22, ptr noundef %0, i32 noundef 1, i32 noundef 1, i32 noundef 0) #3
  %24 = getelementptr inbounds nuw i8, ptr %1, i64 408
  %25 = load ptr, ptr %24, align 8
  %26 = zext nneg i8 %21 to i32
  %27 = tail call ptr @val_to_str_const(i32 noundef %26, ptr noundef nonnull @daylight_saving_time_vals, ptr noundef nonnull @.str.948) #3
  %28 = tail call noalias ptr (ptr, ptr, ...) @wmem_strdup_printf(ptr noundef %25, ptr noundef nonnull @.str.947, i32 noundef %7, i32 noundef %17, i32 noundef %18, ptr noundef %27) #3
  %29 = getelementptr inbounds nuw i8, ptr %3, i64 24
  store ptr %28, ptr %29, align 8
  ret i32 2
}